; Function Attrs: nounwind uwtable
define void @png_benign_error(ptr noalias noundef %0, ptr noundef %1) local_unnamed_addr #5 {
  %3 = getelementptr inbounds nuw i8, ptr %0, i64 304
  %4 = load i32, ptr %3, align 8, !tbaa !36
  %5 = and i32 %4, 1048576
  %.not = icmp eq i32 %5, 0
  %6 = getelementptr inbounds nuw i8, ptr %0, i64 300
  %7 = load i32, ptr %6, align 4, !tbaa !37
  %8 = and i32 %7, 32768
  %.not13 = icmp eq i32 %8, 0
  br i1 %.not, label %26, label %9

9:                                                ; preds = %2
  br i1 %.not13, label %14, label %10

10:                                               ; preds = %9
  %11 = getelementptr inbounds nuw i8, ptr %0, i64 544
  %12 = load i32, ptr %11, align 8, !tbaa !38
  %.not16 = icmp eq i32 %12, 0
  br i1 %.not16, label %14, label %13

13:                                               ; preds = %10
  tail call void @png_chunk_warning(ptr noundef nonnull %0, ptr noundef %1)
  br label %png_warning.exit

14:                                               ; preds = %9, %10
  tail call void @llvm.experimental.noalias.scope.decl(metadata !39)
  %15 = load i8, ptr %1, align 1, !tbaa !24, !noalias !39
  %16 = icmp eq i8 %15, 35
  br i1 %16, label %.preheader.i, label %.thread20.i

.preheader.i:                                     ; preds = %14, %20
  %indvars.iv.i = phi i64 [ %indvars.iv.next.i, %20 ], [ 1, %14 ]
  %17 = getelementptr inbounds nuw i8, ptr %1, i64 %indvars.iv.i
  %18 = load i8, ptr %17, align 1, !tbaa !24, !noalias !39
  %19 = icmp eq i8 %18, 32
  br i1 %19, label %.thread20.loopexit.i, label %20

20:                                               ; preds = %.preheader.i
  %indvars.iv.next.i = add nuw nsw i64 %indvars.iv.i, 1
  %exitcond.not.i = icmp eq i64 %indvars.iv.next.i, 15
  br i1 %exitcond.not.i, label %.thread20.loopexit.i, label %.preheader.i, !llvm.loop !28

.thread20.loopexit.i:                             ; preds = %20, %.preheader.i
  %.022.ph.i = phi i64 [ 15, %20 ], [ %indvars.iv.i, %.preheader.i ]
  %21 = and i64 %.022.ph.i, 4294967295
  br label %.thread20.i

.thread20.i:                                      ; preds = %.thread20.loopexit.i, %14
  %.022.i = phi i64 [ 0, %14 ], [ %21, %.thread20.loopexit.i ]
  %22 = getelementptr inbounds nuw i8, ptr %0, i64 232
  %23 = load ptr, ptr %22, align 8, !tbaa !29, !alias.scope !39
  %.not17.i = icmp eq ptr %23, null
  %24 = getelementptr inbounds nuw i8, ptr %1, i64 %.022.i
  br i1 %.not17.i, label %.split14.i, label %25

.split14.i:                                       ; preds = %.thread20.i
  tail call fastcc void @png_default_warning(ptr noundef nonnull %24)
  br label %png_warning.exit

25:                                               ; preds = %.thread20.i
  tail call void %23(ptr noundef nonnull %0, ptr noundef nonnull %24) #21
  br label %png_warning.exit

26:                                               ; preds = %2
  br i1 %.not13, label %31, label %27

27:                                               ; preds = %26
  %28 = getelementptr inbounds nuw i8, ptr %0, i64 544
  %29 = load i32, ptr %28, align 8, !tbaa !38
  %.not14 = icmp eq i32 %29, 0
  br i1 %.not14, label %31, label %30

30:                                               ; preds = %27
  tail call void @png_chunk_error(ptr noundef nonnull %0, ptr noundef %1) #22
  unreachable

31:                                               ; preds = %27, %26
  tail call void @png_error(ptr noundef nonnull %0, ptr noundef %1) #22
  unreachable

png_warning.exit:                                 ; preds = %25, %.split14.i, %13
  ret void
}